target datalayout = "e-m:e-p270:32:32-p271:32:32-p272:64:64-i64:64-i128:128-f80:128-n8:16:32:64-S128"
target triple = "x86_64-pc-linux-gnu"

%struct.SDL_Window = type { i32, ptr, ptr, i32, i32, i32, i32, i32, i32, i32, i32, float, float, i32, i32, i64, i64, float, i8, i8, i32, i32, %struct.SDL_Rect, %struct.SDL_Rect, %struct.SDL_Rect, i8, i8, i8, %struct.SDL_DisplayMode, %struct.SDL_DisplayMode, %struct.SDL_HDROutputProperties, float, ptr, i8, i8, i8, i8, i8, i8, i8, i8, i8, i32, i32, i32, i32, %struct.SDL_Rect, i32, i8, %struct.SDL_Rect, i32, %struct.SDL_Rect, ptr, ptr, i32, float, i32, i32, ptr, ptr, ptr, ptr, ptr, ptr, ptr, ptr, ptr }
%struct.SDL_DisplayMode = type { i32, i32, i32, i32, float, float, i32, i32, ptr }
%struct.SDL_HDROutputProperties = type { float, float }
%struct.SDL_Rect = type { i32, i32, i32, i32 }

@.str.1 = private unnamed_addr constant [41 x i8] c"Video subsystem has not been initialized\00", align 1
@_this = internal global ptr null, align 8
@.str.20 = private unnamed_addr constant [15 x i8] c"Invalid window\00", align 1

; Function Attrs: nounwind uwtable
define hidden zeroext i1 @SDL_GetWindowSize_REAL(ptr noundef %0, ptr noundef %1, ptr noundef %2) #0 {
  %4 = alloca i1, align 1
  %5 = alloca ptr, align 8
  %6 = alloca ptr, align 8
  %7 = alloca ptr, align 8
  store ptr %0, ptr %5, align 8
  store ptr %1, ptr %6, align 8
  store ptr %2, ptr %7, align 8
  %8 = load ptr, ptr @_this, align 8
  %9 = icmp ne ptr %8, null
  br i1 %9, label %12, label %10

10:                                               ; preds = %3
  %11 = call zeroext i1 @SDL_UninitializedVideo()
  store i1 false, ptr %4, align 1
  br label %34

12:                                               ; preds = %3
  %13 = load ptr, ptr %5, align 8
  %14 = call zeroext i1 @SDL_ObjectValid(ptr noundef %13, i32 noundef 1)
  br i1 %14, label %17, label %15

15:                                               ; preds = %12
  %16 = call zeroext i1 (ptr, ...) @SDL_SetError_REAL(ptr noundef @.str.20)
  store i1 false, ptr %4, align 1
  br label %34

17:                                               ; preds = %12
  %18 = load ptr, ptr %6, align 8
  %19 = icmp ne ptr %18, null
  br i1 %19, label %20, label %25

20:                                               ; preds = %17
  %21 = load ptr, ptr %5, align 8
  %22 = getelementptr inbounds nuw %struct.SDL_Window, ptr %21, i32 0, i32 5
  %23 = load i32, ptr %22, align 8
  %24 = load ptr, ptr %6, align 8
  store i32 %23, ptr %24, align 4
  br label %25

25:                                               ; preds = %20, %17
  %26 = load ptr, ptr %7, align 8
  %27 = icmp ne ptr %26, null
  br i1 %27, label %28, label %33

28:                                               ; preds = %25
  %29 = load ptr, ptr %5, align 8
  %30 = getelementptr inbounds nuw %struct.SDL_Window, ptr %29, i32 0, i32 6
  %31 = load i32, ptr %30, align 4
  %32 = load ptr, ptr %7, align 8
  store i32 %31, ptr %32, align 4
  br label %33

33:                                               ; preds = %28, %25
  store i1 true, ptr %4, align 1
  br label %34

34:                                               ; preds = %33, %15, %10
  %35 = load i1, ptr %4, align 1
  ret i1 %35
}

; Function Attrs: nounwind uwtable
define hidden zeroext i1 @SDL_UninitializedVideo() #0 {
  %1 = call zeroext i1 (ptr, ...) @SDL_SetError_REAL(ptr noundef @.str.1)
  ret i1 %1
}

; Function Attrs: nounwind uwtable
define hidden float @SDL_GetWindowPixelDensity_REAL(ptr noundef %0) #0 {
  %2 = alloca float, align 4
  %3 = alloca ptr, align 8
  %4 = alloca i32, align 4
  %5 = alloca i32, align 4
  %6 = alloca i32, align 4
  %7 = alloca i32, align 4
  %8 = alloca float, align 4
  %9 = alloca i32, align 4
  store ptr %0, ptr %3, align 8
  call void @llvm.lifetime.start.p0(i64 4, ptr %4) #10
  call void @llvm.lifetime.start.p0(i64 4, ptr %5) #10
  call void @llvm.lifetime.start.p0(i64 4, ptr %6) #10
  call void @llvm.lifetime.start.p0(i64 4, ptr %7) #10
  call void @llvm.lifetime.start.p0(i64 4, ptr %8) #10
  store float 1.000000e+00, ptr %8, align 4
  %10 = load ptr, ptr @_this, align 8
  %11 = icmp ne ptr %10, null
  br i1 %11, label %14, label %12

12:                                               ; preds = %1
  %13 = call zeroext i1 @SDL_UninitializedVideo()
  store float 0.000000e+00, ptr %2, align 4
  store i32 1, ptr %9, align 4
  br label %33

14:                                               ; preds = %1
  %15 = load ptr, ptr %3, align 8
  %16 = call zeroext i1 @SDL_ObjectValid(ptr noundef %15, i32 noundef 1)
  br i1 %16, label %19, label %17

17:                                               ; preds = %14
  %18 = call zeroext i1 (ptr, ...) @SDL_SetError_REAL(ptr noundef @.str.20)
  store float 0.000000e+00, ptr %2, align 4
  store i32 1, ptr %9, align 4
  br label %33

19:                                               ; preds = %14
  %20 = load ptr, ptr %3, align 8
  %21 = call zeroext i1 @SDL_GetWindowSize_REAL(ptr noundef %20, ptr noundef %4, ptr noundef %5)
  br i1 %21, label %22, label %31

22:                                               ; preds = %19
  %23 = load ptr, ptr %3, align 8
  %24 = call zeroext i1 @SDL_GetWindowSizeInPixels_REAL(ptr noundef %23, ptr noundef %6, ptr noundef %7)
  br i1 %24, label %25, label %31

25:                                               ; preds = %22
  %26 = load i32, ptr %6, align 4
  %27 = sitofp i32 %26 to float
  %28 = load i32, ptr %4, align 4
  %29 = sitofp i32 %28 to float
  %30 = fdiv float %27, %29
  store float %30, ptr %8, align 4
  br label %31

31:                                               ; preds = %25, %22, %19
  %32 = load float, ptr %8, align 4
  store float %32, ptr %2, align 4
  store i32 1, ptr %9, align 4
  br label %33

33:                                               ; preds = %31, %17, %12
  call void @llvm.lifetime.end.p0(i64 4, ptr %8) #10
  call void @llvm.lifetime.end.p0(i64 4, ptr %7) #10
  call void @llvm.lifetime.end.p0(i64 4, ptr %6) #10
  call void @llvm.lifetime.end.p0(i64 4, ptr %5) #10
  call void @llvm.lifetime.end.p0(i64 4, ptr %4) #10
  %34 = load float, ptr %2, align 4
  ret float %34
}