; Function Attrs: nounwind uwtable
define hidden float @SDL_GetWindowPixelDensity_REAL(ptr noundef %0) local_unnamed_addr #0 {
  %2 = alloca i32, align 4
  %3 = alloca i32, align 4
  call void @llvm.lifetime.start.p0(i64 4, ptr nonnull %2) #19
  call void @llvm.lifetime.start.p0(i64 4, ptr nonnull %3) #19
  %4 = load ptr, ptr @_this, align 8
  %.not = icmp eq ptr %4, null
  br i1 %.not, label %5, label %7

5:                                                ; preds = %1
  %6 = tail call zeroext i1 (ptr, ...) @SDL_SetError_REAL(ptr noundef nonnull @.str.1) #19
  br label %SDL_GetWindowSize_REAL.exit.thread

7:                                                ; preds = %1
  %8 = tail call zeroext i1 @SDL_ObjectValid(ptr noundef %0, i32 noundef 1) #19
  br i1 %8, label %11, label %9

9:                                                ; preds = %7
  %10 = tail call zeroext i1 (ptr, ...) @SDL_SetError_REAL(ptr noundef nonnull @.str.20) #19
  br label %SDL_GetWindowSize_REAL.exit.thread

11:                                               ; preds = %7
  %12 = load ptr, ptr @_this, align 8
  %.not.i = icmp eq ptr %12, null
  br i1 %.not.i, label %13, label %15

13:                                               ; preds = %11
  %14 = tail call zeroext i1 (ptr, ...) @SDL_SetError_REAL(ptr noundef nonnull @.str.1) #19
  br label %SDL_GetWindowSize_REAL.exit.thread

15:                                               ; preds = %11
  %16 = tail call zeroext i1 @SDL_ObjectValid(ptr noundef %0, i32 noundef 1) #19
  br i1 %16, label %19, label %17

17:                                               ; preds = %15
  %18 = tail call zeroext i1 (ptr, ...) @SDL_SetError_REAL(ptr noundef nonnull @.str.20) #19
  br label %SDL_GetWindowSize_REAL.exit.thread

19:                                               ; preds = %15
  %20 = getelementptr inbounds nuw i8, ptr %0, i64 32
  %21 = load i32, ptr %20, align 8
  %22 = call zeroext i1 @SDL_GetWindowSizeInPixels_REAL(ptr noundef %0, ptr noundef nonnull %2, ptr noundef nonnull %3)
  br i1 %22, label %23, label %SDL_GetWindowSize_REAL.exit.thread

23:                                               ; preds = %19
  %24 = load i32, ptr %2, align 4
  %25 = sitofp i32 %24 to float
  %26 = sitofp i32 %21 to float
  %27 = fdiv float %25, %26
  br label %SDL_GetWindowSize_REAL.exit.thread

SDL_GetWindowSize_REAL.exit.thread:               ; preds = %13, %17, %19, %23, %9, %5
  %.05 = phi float [ 0.000000e+00, %9 ], [ 0.000000e+00, %5 ], [ %27, %23 ], [ 1.000000e+00, %19 ], [ 1.000000e+00, %17 ], [ 1.000000e+00, %13 ]
  call void @llvm.lifetime.end.p0(i64 4, ptr nonnull %3) #19
  call void @llvm.lifetime.end.p0(i64 4, ptr nonnull %2) #19
  ret float %.05
}